; Function Attrs: mustprogress nofree norecurse nosync nounwind willreturn memory(argmem: read) uwtable
define dso_local noundef zeroext i1 @_ZN7doctestgeERKNS_6ApproxEd(ptr noundef nonnull readonly align 8 captures(none) dereferenceable(24) %0, double noundef %1) local_unnamed_addr #17 {
  %3 = getelementptr inbounds nuw i8, ptr %0, i64 16
  %4 = load double, ptr %3, align 8, !tbaa !129
  %5 = fcmp ogt double %4, %1
  br i1 %5, label %18, label %6

6:                                                ; preds = %2
  %7 = fsub double %1, %4
  %8 = tail call double @llvm.fabs.f64(double %7)
  %9 = load double, ptr %0, align 8, !tbaa !126
  %10 = getelementptr inbounds nuw i8, ptr %0, i64 8
  %11 = load double, ptr %10, align 8, !tbaa !128
  %12 = tail call double @llvm.fabs.f64(double %1)
  %13 = tail call double @llvm.fabs.f64(double %4)
  %14 = fcmp olt double %12, %13
  %.sroa.speculated.i.i = select i1 %14, double %13, double %12
  %15 = fadd double %.sroa.speculated.i.i, %11
  %16 = fmul double %9, %15
  %17 = fcmp olt double %8, %16
  br label %18

18:                                               ; preds = %6, %2
  %19 = phi i1 [ true, %2 ], [ %17, %6 ]
  ret i1 %19
}